target datalayout = "e-m:e-p270:32:32-p271:32:32-p272:64:64-i64:64-i128:128-f80:128-n8:16:32:64-S128"
target triple = "x86_64-pc-linux-gnu"

%struct.obj_info = type { ptr, ptr, i64, ptr, i64, i64, %struct.dwarf_section, %struct.dwarf_section, %struct.dwarf_section, %struct.dwarf_section, %struct.dwarf_section, %struct.dwarf_section, %struct.dwarf_section, %struct.dwarf_section, %struct.dwarf_section, ptr }
%struct.dwarf_section = type { ptr, i64, i64 }

@binary_filename = internal global [4097 x i8] zeroinitializer, align 16
@follow_debuglink.global_debug_dir = internal constant [15 x i8] c"/usr/lib/debug\00", align 1

; Function Attrs: nounwind sspstrong uwtable
define internal void @append_obj(ptr noundef %0) #0 {
  %2 = alloca ptr, align 8
  %3 = alloca ptr, align 8
  store ptr %0, ptr %2, align 8, !tbaa !54
  call void @llvm.lifetime.start.p0(i64 8, ptr %3) #12
  %4 = call noalias ptr @calloc(i64 noundef 1, i64 noundef 272) #13
  store ptr %4, ptr %3, align 8, !tbaa !17
  %5 = load ptr, ptr %2, align 8, !tbaa !54
  %6 = load ptr, ptr %5, align 8, !tbaa !17
  %7 = icmp ne ptr %6, null
  br i1 %7, label %8, label %13

8:                                                ; preds = %1
  %9 = load ptr, ptr %3, align 8, !tbaa !17
  %10 = load ptr, ptr %2, align 8, !tbaa !54
  %11 = load ptr, ptr %10, align 8, !tbaa !17
  %12 = getelementptr inbounds nuw %struct.obj_info, ptr %11, i32 0, i32 15
  store ptr %9, ptr %12, align 8, !tbaa !48
  br label %13

13:                                               ; preds = %8, %1
  %14 = load ptr, ptr %3, align 8, !tbaa !17
  %15 = load ptr, ptr %2, align 8, !tbaa !54
  store ptr %14, ptr %15, align 8, !tbaa !17
  call void @llvm.lifetime.end.p0(i64 8, ptr %3) #12
  ret void
}

; Function Attrs: alwaysinline nounwind
define internal ptr @memcpy.inline(ptr noalias nonnull %0, ptr noalias nonnull %1, i64 %2) #3 {
  %4 = alloca ptr, align 8
  %5 = alloca ptr, align 8
  %6 = alloca i64, align 8
  store ptr %0, ptr %4, align 8, !tbaa !11
  store ptr %1, ptr %5, align 8, !tbaa !11
  store i64 %2, ptr %6, align 8, !tbaa !21
  %7 = load ptr, ptr %4, align 8, !tbaa !11
  %8 = load ptr, ptr %5, align 8, !tbaa !11
  %9 = load i64, ptr %6, align 8, !tbaa !21
  %10 = load ptr, ptr %4, align 8, !tbaa !11
  %11 = call i64 @llvm.objectsize.i64.p0(ptr %10, i1 false, i1 true, i1 false)
  %12 = call ptr @__memcpy_chk(ptr noundef %7, ptr noundef %8, i64 noundef %9, i64 noundef %11) #12
  ret ptr %12
}

; Function Attrs: alwaysinline nounwind
define internal ptr @memmove.inline(ptr nonnull %0, ptr nonnull %1, i64 %2) #3 {
  %4 = alloca ptr, align 8
  %5 = alloca ptr, align 8
  %6 = alloca i64, align 8
  store ptr %0, ptr %4, align 8, !tbaa !11
  store ptr %1, ptr %5, align 8, !tbaa !11
  store i64 %2, ptr %6, align 8, !tbaa !21
  %7 = load ptr, ptr %4, align 8, !tbaa !11
  %8 = load ptr, ptr %5, align 8, !tbaa !11
  %9 = load i64, ptr %6, align 8, !tbaa !21
  %10 = load ptr, ptr %4, align 8, !tbaa !11
  %11 = call i64 @llvm.objectsize.i64.p0(ptr %10, i1 false, i1 true, i1 false)
  %12 = call ptr @__memmove_chk(ptr noundef %7, ptr noundef %8, i64 noundef %9, i64 noundef %11) #12
  ret ptr %12
}

; Function Attrs: nounwind sspstrong uwtable
define internal void @follow_debuglink(ptr noundef %0, i32 noundef %1, ptr noundef %2, ptr noundef %3, ptr noundef %4, i32 noundef %5, ptr noundef %6) #0 {
  %8 = alloca ptr, align 8
  %9 = alloca i32, align 4
  %10 = alloca ptr, align 8
  %11 = alloca ptr, align 8
  %12 = alloca ptr, align 8
  %13 = alloca i32, align 4
  %14 = alloca ptr, align 8
  %15 = alloca i64, align 8
  %16 = alloca ptr, align 8
  %17 = alloca ptr, align 8
  %18 = alloca ptr, align 8
  %19 = alloca i64, align 8
  %20 = alloca i32, align 4
  store ptr %0, ptr %8, align 8, !tbaa !19
  store i32 %1, ptr %9, align 4, !tbaa !7
  store ptr %2, ptr %10, align 8, !tbaa !11
  store ptr %3, ptr %11, align 8, !tbaa !54
  store ptr %4, ptr %12, align 8, !tbaa !15
  store i32 %5, ptr %13, align 4, !tbaa !7
  store ptr %6, ptr %14, align 8, !tbaa !13
  call void @llvm.lifetime.start.p0(i64 8, ptr %15) #12
  store i64 14, ptr %15, align 8, !tbaa !21
  call void @llvm.lifetime.start.p0(i64 8, ptr %16) #12
  call void @llvm.lifetime.start.p0(i64 8, ptr %17) #12
  %21 = load ptr, ptr %11, align 8, !tbaa !54
  %22 = load ptr, ptr %21, align 8, !tbaa !17
  store ptr %22, ptr %17, align 8, !tbaa !17
  call void @llvm.lifetime.start.p0(i64 8, ptr %18) #12
  call void @llvm.lifetime.start.p0(i64 8, ptr %19) #12
  %23 = call ptr @strrchr(ptr noundef @binary_filename, i32 noundef 47) #14
  store ptr %23, ptr %16, align 8, !tbaa !19
  %24 = load ptr, ptr %16, align 8, !tbaa !19
  %25 = icmp ne ptr %24, null
  br i1 %25, label %27, label %26

26:                                               ; preds = %7
  store i32 1, ptr %20, align 4
  br label %66

27:                                               ; preds = %7
  %28 = load ptr, ptr %16, align 8, !tbaa !19
  %29 = getelementptr i8, ptr %28, i64 1
  store i8 0, ptr %29, align 1, !tbaa !53
  %30 = call i64 @strlen(ptr noundef @binary_filename) #14
  store i64 %30, ptr %19, align 8, !tbaa !21
  %31 = load i64, ptr %19, align 8, !tbaa !21
  %32 = icmp uge i64 %31, 4082
  br i1 %32, label %33, label %34

33:                                               ; preds = %27
  store i64 4081, ptr %19, align 8, !tbaa !21
  br label %34

34:                                               ; preds = %33, %27
  %35 = load i64, ptr %19, align 8, !tbaa !21
  %36 = call ptr @memmove.inline(ptr noundef getelementptr (i8, ptr @binary_filename, i64 14), ptr noundef @binary_filename, i64 noundef %35) #12
  %37 = call ptr @memcpy.inline(ptr noundef @binary_filename, ptr noundef @follow_debuglink.global_debug_dir, i64 noundef 14) #12
  %38 = load i64, ptr %19, align 8, !tbaa !21
  %39 = add i64 %38, 14
  store i64 %39, ptr %19, align 8, !tbaa !21
  %40 = load i64, ptr %19, align 8, !tbaa !21
  %41 = getelementptr i8, ptr @binary_filename, i64 %40
  %42 = load ptr, ptr %8, align 8, !tbaa !19
  %43 = load i64, ptr %19, align 8, !tbaa !21
  %44 = sub i64 4096, %43
  %45 = call i64 @strlcpy(ptr noundef %41, ptr noundef %42, i64 noundef %44)
  %46 = load ptr, ptr %11, align 8, !tbaa !54
  call void @append_obj(ptr noundef %46)
  %47 = load ptr, ptr %11, align 8, !tbaa !54
  %48 = load ptr, ptr %47, align 8, !tbaa !17
  store ptr %48, ptr %18, align 8, !tbaa !17
  %49 = load ptr, ptr %17, align 8, !tbaa !17
  %50 = getelementptr inbounds nuw %struct.obj_info, ptr %49, i32 0, i32 4
  %51 = load i64, ptr %50, align 8, !tbaa !36
  %52 = load ptr, ptr %18, align 8, !tbaa !17
  %53 = getelementptr inbounds nuw %struct.obj_info, ptr %52, i32 0, i32 4
  store i64 %51, ptr %53, align 8, !tbaa !36
  %54 = load ptr, ptr %17, align 8, !tbaa !17
  %55 = getelementptr inbounds nuw %struct.obj_info, ptr %54, i32 0, i32 0
  %56 = load ptr, ptr %55, align 8, !tbaa !23
  %57 = load ptr, ptr %18, align 8, !tbaa !17
  %58 = getelementptr inbounds nuw %struct.obj_info, ptr %57, i32 0, i32 0
  store ptr %56, ptr %58, align 8, !tbaa !23
  %59 = load i32, ptr %9, align 4, !tbaa !7
  %60 = load ptr, ptr %10, align 8, !tbaa !11
  %61 = load ptr, ptr %11, align 8, !tbaa !54
  %62 = load ptr, ptr %12, align 8, !tbaa !15
  %63 = load i32, ptr %13, align 4, !tbaa !7
  %64 = load ptr, ptr %14, align 8, !tbaa !13
  %65 = call i64 @fill_lines(i32 noundef %59, ptr noundef %60, i32 noundef 0, ptr noundef %61, ptr noundef %62, i32 noundef %63, ptr noundef %64)
  store i32 0, ptr %20, align 4
  br label %66

66:                                               ; preds = %34, %26
  call void @llvm.lifetime.end.p0(i64 8, ptr %19) #12
  call void @llvm.lifetime.end.p0(i64 8, ptr %18) #12
  call void @llvm.lifetime.end.p0(i64 8, ptr %17) #12
  call void @llvm.lifetime.end.p0(i64 8, ptr %16) #12
  call void @llvm.lifetime.end.p0(i64 8, ptr %15) #12
  %67 = load i32, ptr %20, align 4
  switch i32 %67, label %69 [
    i32 0, label %68
    i32 1, label %68
  ]

68:                                               ; preds = %66, %66
  ret void

69:                                               ; preds = %66
  unreachable
}