; Function Attrs: nounwind sspstrong uwtable
define internal fastcc void @follow_debuglink(ptr noundef %0, i32 noundef %1, ptr noundef readonly captures(none) %2, ptr noundef nonnull captures(none) %3, ptr noundef captures(none) %4, i32 noundef %5, ptr noundef %6) unnamed_addr #0 {
  %8 = tail call ptr @strrchr(ptr noundef nonnull dereferenceable(1) @binary_filename, i32 noundef 47) #17
  %.not = icmp eq ptr %8, null
  br i1 %.not, label %27, label %9

9:                                                ; preds = %7
  %10 = load ptr, ptr %3, align 8, !tbaa !7
  %11 = getelementptr i8, ptr %8, i64 1
  store i8 0, ptr %11, align 1, !tbaa !12
  %12 = tail call i64 @strlen(ptr noundef nonnull dereferenceable(1) @binary_filename) #17
  %spec.store.select = tail call i64 @llvm.umin.i64(i64 %12, i64 4081)
  %13 = tail call ptr @__memmove_chk(ptr noundef nonnull getelementptr inbounds nuw (i8, ptr @binary_filename, i64 14), ptr noundef nonnull @binary_filename, i64 noundef %spec.store.select, i64 noundef 4083) #16
  tail call void @llvm.memcpy.p0.p0.i64(ptr noundef nonnull align 16 dereferenceable(14) @binary_filename, ptr noundef nonnull align 1 dereferenceable(14) @follow_debuglink.global_debug_dir, i64 noundef 14, i1 noundef false) #16
  %14 = getelementptr i8, ptr @binary_filename, i64 %spec.store.select
  %15 = getelementptr i8, ptr %14, i64 14
  %16 = sub nuw nsw i64 4082, %spec.store.select
  %17 = tail call i64 @strlcpy(ptr noundef %15, ptr noundef nonnull dereferenceable(1) %0, i64 noundef %16) #16
  %18 = tail call noalias dereferenceable_or_null(272) ptr @calloc(i64 noundef 1, i64 noundef 272) #15
  %19 = load ptr, ptr %3, align 8, !tbaa !7
  %.not.i = icmp eq ptr %19, null
  br i1 %.not.i, label %append_obj.exit, label %20

20:                                               ; preds = %9
  %21 = getelementptr inbounds nuw i8, ptr %19, i64 264
  store ptr %18, ptr %21, align 8, !tbaa !31
  br label %append_obj.exit

append_obj.exit:                                  ; preds = %9, %20
  store ptr %18, ptr %3, align 8, !tbaa !7
  %22 = getelementptr inbounds nuw i8, ptr %10, i64 32
  %23 = load i64, ptr %22, align 8, !tbaa !32
  %24 = getelementptr inbounds nuw i8, ptr %18, i64 32
  store i64 %23, ptr %24, align 8, !tbaa !32
  %25 = load ptr, ptr %10, align 8, !tbaa !13
  store ptr %25, ptr %18, align 8, !tbaa !13
  %26 = tail call fastcc i64 @fill_lines(i32 noundef %1, ptr noundef %2, i32 noundef 0, ptr noundef %3, ptr noundef %4, i32 noundef %5, ptr noundef %6)
  br label %27

27:                                               ; preds = %7, %append_obj.exit
  ret void
}